target datalayout = "e-m:e-p270:32:32-p271:32:32-p272:64:64-i64:64-i128:128-f80:128-n8:16:32:64-S128"
target triple = "x86_64-pc-linux-gnu"

%struct.pkcs7_st = type { ptr, i64, i32, i32, ptr, %union.anon.0, %struct.PKCS7_CTX_st }
%union.anon.0 = type { ptr }
%struct.PKCS7_CTX_st = type { ptr, ptr }
%struct.pkcs7_encrypted_st = type { ptr, ptr }
%struct.pkcs7_enc_content_st = type { ptr, ptr, ptr, ptr, ptr }

@bio_err = external global ptr, align 8
@.str.165 = private unnamed_addr constant [12 x i8] c"PKCS7 Data\0A\00", align 1
@.str.166 = private unnamed_addr constant [23 x i8] c"PKCS7 Encrypted data: \00", align 1
@.str.167 = private unnamed_addr constant [11 x i8] c"<no data>\0A\00", align 1

; Function Attrs: inlinehint nounwind uwtable
define internal ptr @ossl_check_const_PKCS12_SAFEBAG_sk_type(ptr noundef %0) #4 {
  %2 = alloca ptr, align 8
  store ptr %0, ptr %2, align 8, !tbaa !77
  %3 = load ptr, ptr %2, align 8, !tbaa !77
  ret ptr %3
}

; Function Attrs: inlinehint nounwind uwtable
define internal ptr @ossl_check_PKCS7_freefunc_type(ptr noundef %0) #4 {
  %2 = alloca ptr, align 8
  store ptr %0, ptr %2, align 8, !tbaa !64
  %3 = load ptr, ptr %2, align 8, !tbaa !64
  ret ptr %3
}

; Function Attrs: inlinehint nounwind uwtable
define internal ptr @ossl_check_PKCS7_sk_type(ptr noundef %0) #4 {
  %2 = alloca ptr, align 8
  store ptr %0, ptr %2, align 8, !tbaa !69
  %3 = load ptr, ptr %2, align 8, !tbaa !69
  ret ptr %3
}

; Function Attrs: inlinehint nounwind uwtable
define internal ptr @ossl_check_PKCS12_SAFEBAG_freefunc_type(ptr noundef %0) #4 {
  %2 = alloca ptr, align 8
  store ptr %0, ptr %2, align 8, !tbaa !64
  %3 = load ptr, ptr %2, align 8, !tbaa !64
  ret ptr %3
}

; Function Attrs: inlinehint nounwind uwtable
define internal ptr @ossl_check_PKCS12_SAFEBAG_sk_type(ptr noundef %0) #4 {
  %2 = alloca ptr, align 8
  store ptr %0, ptr %2, align 8, !tbaa !77
  %3 = load ptr, ptr %2, align 8, !tbaa !77
  ret ptr %3
}

; Function Attrs: nounwind uwtable
define dso_local i32 @dump_certs_pkeys_bags(ptr noundef %0, ptr noundef %1, ptr noundef %2, i32 noundef %3, i32 noundef %4, ptr noundef %5, ptr noundef %6) #0 {
  %8 = alloca i32, align 4
  %9 = alloca ptr, align 8
  %10 = alloca ptr, align 8
  %11 = alloca ptr, align 8
  %12 = alloca i32, align 4
  %13 = alloca i32, align 4
  %14 = alloca ptr, align 8
  %15 = alloca ptr, align 8
  %16 = alloca i32, align 4
  %17 = alloca i32, align 4
  store ptr %0, ptr %9, align 8, !tbaa !15
  store ptr %1, ptr %10, align 8, !tbaa !77
  store ptr %2, ptr %11, align 8, !tbaa !11
  store i32 %3, ptr %12, align 4, !tbaa !4
  store i32 %4, ptr %13, align 4, !tbaa !4
  store ptr %5, ptr %14, align 8, !tbaa !11
  store ptr %6, ptr %15, align 8, !tbaa !21
  call void @llvm.lifetime.start.p0(i64 4, ptr %16) #6
  store i32 0, ptr %16, align 4, !tbaa !4
  br label %18

18:                                               ; preds = %39, %7
  %19 = load i32, ptr %16, align 4, !tbaa !4
  %20 = load ptr, ptr %10, align 8, !tbaa !77
  %21 = call ptr @ossl_check_const_PKCS12_SAFEBAG_sk_type(ptr noundef %20)
  %22 = call i32 @OPENSSL_sk_num(ptr noundef %21)
  %23 = icmp slt i32 %19, %22
  br i1 %23, label %24, label %42

24:                                               ; preds = %18
  %25 = load ptr, ptr %9, align 8, !tbaa !15
  %26 = load ptr, ptr %10, align 8, !tbaa !77
  %27 = call ptr @ossl_check_const_PKCS12_SAFEBAG_sk_type(ptr noundef %26)
  %28 = load i32, ptr %16, align 4, !tbaa !4
  %29 = call ptr @OPENSSL_sk_value(ptr noundef %27, i32 noundef %28)
  %30 = load ptr, ptr %11, align 8, !tbaa !11
  %31 = load i32, ptr %12, align 4, !tbaa !4
  %32 = load i32, ptr %13, align 4, !tbaa !4
  %33 = load ptr, ptr %14, align 8, !tbaa !11
  %34 = load ptr, ptr %15, align 8, !tbaa !21
  %35 = call i32 @dump_certs_pkeys_bag(ptr noundef %25, ptr noundef %29, ptr noundef %30, i32 noundef %31, i32 noundef %32, ptr noundef %33, ptr noundef %34)
  %36 = icmp ne i32 %35, 0
  br i1 %36, label %38, label %37

37:                                               ; preds = %24
  store i32 0, ptr %8, align 4
  store i32 1, ptr %17, align 4
  br label %43

38:                                               ; preds = %24
  br label %39

39:                                               ; preds = %38
  %40 = load i32, ptr %16, align 4, !tbaa !4
  %41 = add nsw i32 %40, 1
  store i32 %41, ptr %16, align 4, !tbaa !4
  br label %18, !llvm.loop !102

42:                                               ; preds = %18
  store i32 1, ptr %8, align 4
  store i32 1, ptr %17, align 4
  br label %43

43:                                               ; preds = %42, %37
  call void @llvm.lifetime.end.p0(i64 4, ptr %16) #6
  %44 = load i32, ptr %8, align 4
  ret i32 %44
}

; Function Attrs: inlinehint nounwind uwtable
define internal ptr @ossl_check_const_PKCS7_sk_type(ptr noundef %0) #4 {
  %2 = alloca ptr, align 8
  store ptr %0, ptr %2, align 8, !tbaa !69
  %3 = load ptr, ptr %2, align 8, !tbaa !69
  ret ptr %3
}

; Function Attrs: nounwind uwtable
define dso_local i32 @dump_certs_keys_p12(ptr noundef %0, ptr noundef %1, ptr noundef %2, i32 noundef %3, i32 noundef %4, ptr noundef %5, ptr noundef %6) #0 {
  %8 = alloca i32, align 4
  %9 = alloca ptr, align 8
  %10 = alloca ptr, align 8
  %11 = alloca ptr, align 8
  %12 = alloca i32, align 4
  %13 = alloca i32, align 4
  %14 = alloca ptr, align 8
  %15 = alloca ptr, align 8
  %16 = alloca ptr, align 8
  %17 = alloca i32, align 4
  %18 = alloca i32, align 4
  %19 = alloca i32, align 4
  %20 = alloca ptr, align 8
  %21 = alloca i32, align 4
  %22 = alloca ptr, align 8
  store ptr %0, ptr %9, align 8, !tbaa !15
  store ptr %1, ptr %10, align 8, !tbaa !17
  store ptr %2, ptr %11, align 8, !tbaa !11
  store i32 %3, ptr %12, align 4, !tbaa !4
  store i32 %4, ptr %13, align 4, !tbaa !4
  store ptr %5, ptr %14, align 8, !tbaa !11
  store ptr %6, ptr %15, align 8, !tbaa !21
  call void @llvm.lifetime.start.p0(i64 8, ptr %16) #6
  store ptr null, ptr %16, align 8, !tbaa !69
  call void @llvm.lifetime.start.p0(i64 4, ptr %17) #6
  call void @llvm.lifetime.start.p0(i64 4, ptr %18) #6
  call void @llvm.lifetime.start.p0(i64 4, ptr %19) #6
  store i32 0, ptr %19, align 4, !tbaa !4
  call void @llvm.lifetime.start.p0(i64 8, ptr %20) #6
  %23 = load ptr, ptr %10, align 8, !tbaa !17
  %24 = call ptr @PKCS12_unpack_authsafes(ptr noundef %23)
  store ptr %24, ptr %16, align 8, !tbaa !69
  %25 = icmp eq ptr %24, null
  br i1 %25, label %26, label %27

26:                                               ; preds = %7
  store i32 0, ptr %8, align 4
  store i32 1, ptr %21, align 4
  br label %123

27:                                               ; preds = %7
  store i32 0, ptr %17, align 4, !tbaa !4
  br label %28

28:                                               ; preds = %114, %27
  %29 = load i32, ptr %17, align 4, !tbaa !4
  %30 = load ptr, ptr %16, align 8, !tbaa !69
  %31 = call ptr @ossl_check_const_PKCS7_sk_type(ptr noundef %30)
  %32 = call i32 @OPENSSL_sk_num(ptr noundef %31)
  %33 = icmp slt i32 %29, %32
  br i1 %33, label %34, label %117

34:                                               ; preds = %28
  call void @llvm.lifetime.start.p0(i64 8, ptr %22) #6
  %35 = load ptr, ptr %16, align 8, !tbaa !69
  %36 = call ptr @ossl_check_const_PKCS7_sk_type(ptr noundef %35)
  %37 = load i32, ptr %17, align 4, !tbaa !4
  %38 = call ptr @OPENSSL_sk_value(ptr noundef %36, i32 noundef %37)
  store ptr %38, ptr %20, align 8, !tbaa !71
  %39 = load ptr, ptr %20, align 8, !tbaa !71
  %40 = getelementptr inbounds nuw %struct.pkcs7_st, ptr %39, i32 0, i32 4
  %41 = load ptr, ptr %40, align 8, !tbaa !73
  %42 = call i32 @OBJ_obj2nid(ptr noundef %41)
  store i32 %42, ptr %18, align 4, !tbaa !4
  %43 = load i32, ptr %18, align 4, !tbaa !4
  %44 = icmp eq i32 %43, 21
  br i1 %44, label %45, label %55

45:                                               ; preds = %34
  %46 = load ptr, ptr %20, align 8, !tbaa !71
  %47 = call ptr @PKCS12_unpack_p7data(ptr noundef %46)
  store ptr %47, ptr %22, align 8, !tbaa !77
  %48 = load i32, ptr %13, align 4, !tbaa !4
  %49 = and i32 %48, 4
  %50 = icmp ne i32 %49, 0
  br i1 %50, label %51, label %54

51:                                               ; preds = %45
  %52 = load ptr, ptr @bio_err, align 8, !tbaa !15
  %53 = call i32 (ptr, ptr, ...) @BIO_printf(ptr noundef %52, ptr noundef @.str.165)
  br label %54

54:                                               ; preds = %51, %45
  br label %89

55:                                               ; preds = %34
  %56 = load i32, ptr %18, align 4, !tbaa !4
  %57 = icmp eq i32 %56, 26
  br i1 %57, label %58, label %87

58:                                               ; preds = %55
  %59 = load i32, ptr %13, align 4, !tbaa !4
  %60 = and i32 %59, 4
  %61 = icmp ne i32 %60, 0
  br i1 %61, label %62, label %82

62:                                               ; preds = %58
  %63 = load ptr, ptr @bio_err, align 8, !tbaa !15
  %64 = call i32 (ptr, ptr, ...) @BIO_printf(ptr noundef %63, ptr noundef @.str.166)
  %65 = load ptr, ptr %20, align 8, !tbaa !71
  %66 = getelementptr inbounds nuw %struct.pkcs7_st, ptr %65, i32 0, i32 5
  %67 = load ptr, ptr %66, align 8, !tbaa !49
  %68 = icmp eq ptr %67, null
  br i1 %68, label %69, label %72

69:                                               ; preds = %62
  %70 = load ptr, ptr @bio_err, align 8, !tbaa !15
  %71 = call i32 (ptr, ptr, ...) @BIO_printf(ptr noundef %70, ptr noundef @.str.167)
  br label %81

72:                                               ; preds = %62
  %73 = load ptr, ptr %20, align 8, !tbaa !71
  %74 = getelementptr inbounds nuw %struct.pkcs7_st, ptr %73, i32 0, i32 5
  %75 = load ptr, ptr %74, align 8, !tbaa !49
  %76 = getelementptr inbounds nuw %struct.pkcs7_encrypted_st, ptr %75, i32 0, i32 1
  %77 = load ptr, ptr %76, align 8, !tbaa !79
  %78 = getelementptr inbounds nuw %struct.pkcs7_enc_content_st, ptr %77, i32 0, i32 1
  %79 = load ptr, ptr %78, align 8, !tbaa !82
  %80 = call i32 @alg_print(ptr noundef %79)
  br label %81

81:                                               ; preds = %72, %69
  br label %82

82:                                               ; preds = %81, %58
  %83 = load ptr, ptr %20, align 8, !tbaa !71
  %84 = load ptr, ptr %11, align 8, !tbaa !11
  %85 = load i32, ptr %12, align 4, !tbaa !4
  %86 = call ptr @PKCS12_unpack_p7encdata(ptr noundef %83, ptr noundef %84, i32 noundef %85)
  store ptr %86, ptr %22, align 8, !tbaa !77
  br label %88

87:                                               ; preds = %55
  store i32 4, ptr %21, align 4
  br label %111

88:                                               ; preds = %82
  br label %89

89:                                               ; preds = %88, %54
  %90 = load ptr, ptr %22, align 8, !tbaa !77
  %91 = icmp eq ptr %90, null
  br i1 %91, label %92, label %93

92:                                               ; preds = %89
  store i32 5, ptr %21, align 4
  br label %111

93:                                               ; preds = %89
  %94 = load ptr, ptr %9, align 8, !tbaa !15
  %95 = load ptr, ptr %22, align 8, !tbaa !77
  %96 = load ptr, ptr %11, align 8, !tbaa !11
  %97 = load i32, ptr %12, align 4, !tbaa !4
  %98 = load i32, ptr %13, align 4, !tbaa !4
  %99 = load ptr, ptr %14, align 8, !tbaa !11
  %100 = load ptr, ptr %15, align 8, !tbaa !21
  %101 = call i32 @dump_certs_pkeys_bags(ptr noundef %94, ptr noundef %95, ptr noundef %96, i32 noundef %97, i32 noundef %98, ptr noundef %99, ptr noundef %100)
  %102 = icmp ne i32 %101, 0
  br i1 %102, label %107, label %103

103:                                              ; preds = %93
  %104 = load ptr, ptr %22, align 8, !tbaa !77
  %105 = call ptr @ossl_check_PKCS12_SAFEBAG_sk_type(ptr noundef %104)
  %106 = call ptr @ossl_check_PKCS12_SAFEBAG_freefunc_type(ptr noundef @PKCS12_SAFEBAG_free)
  call void @OPENSSL_sk_pop_free(ptr noundef %105, ptr noundef %106)
  store i32 5, ptr %21, align 4
  br label %111

107:                                              ; preds = %93
  %108 = load ptr, ptr %22, align 8, !tbaa !77
  %109 = call ptr @ossl_check_PKCS12_SAFEBAG_sk_type(ptr noundef %108)
  %110 = call ptr @ossl_check_PKCS12_SAFEBAG_freefunc_type(ptr noundef @PKCS12_SAFEBAG_free)
  call void @OPENSSL_sk_pop_free(ptr noundef %109, ptr noundef %110)
  store i32 0, ptr %21, align 4
  br label %111

111:                                              ; preds = %103, %92, %107, %87
  call void @llvm.lifetime.end.p0(i64 8, ptr %22) #6
  %112 = load i32, ptr %21, align 4
  switch i32 %112, label %123 [
    i32 0, label %113
    i32 4, label %114
    i32 5, label %118
  ]

113:                                              ; preds = %111
  br label %114

114:                                              ; preds = %113, %111
  %115 = load i32, ptr %17, align 4, !tbaa !4
  %116 = add nsw i32 %115, 1
  store i32 %116, ptr %17, align 4, !tbaa !4
  br label %28, !llvm.loop !85

117:                                              ; preds = %28
  store i32 1, ptr %19, align 4, !tbaa !4
  br label %118

118:                                              ; preds = %117, %111
  %119 = load ptr, ptr %16, align 8, !tbaa !69
  %120 = call ptr @ossl_check_PKCS7_sk_type(ptr noundef %119)
  %121 = call ptr @ossl_check_PKCS7_freefunc_type(ptr noundef @PKCS7_free)
  call void @OPENSSL_sk_pop_free(ptr noundef %120, ptr noundef %121)
  %122 = load i32, ptr %19, align 4, !tbaa !4
  store i32 %122, ptr %8, align 4
  store i32 1, ptr %21, align 4
  br label %123

123:                                              ; preds = %118, %111, %26
  call void @llvm.lifetime.end.p0(i64 8, ptr %20) #6
  call void @llvm.lifetime.end.p0(i64 4, ptr %19) #6
  call void @llvm.lifetime.end.p0(i64 4, ptr %18) #6
  call void @llvm.lifetime.end.p0(i64 4, ptr %17) #6
  call void @llvm.lifetime.end.p0(i64 8, ptr %16) #6
  %124 = load i32, ptr %8, align 4
  ret i32 %124
}