; Function Attrs: nounwind uwtable
define dso_local range(i32 0, 2) i32 @dump_certs_keys_p12(ptr noundef %0, ptr noundef %1, ptr noundef %2, i32 noundef %3, i32 noundef %4, ptr noundef %5, ptr noundef %6) local_unnamed_addr #0 {
  %8 = tail call ptr @PKCS12_unpack_authsafes(ptr noundef %1) #6
  %9 = icmp eq ptr %8, null
  br i1 %9, label %55, label %.preheader

.preheader:                                       ; preds = %7
  %10 = tail call i32 @OPENSSL_sk_num(ptr noundef nonnull %8) #6
  %11 = icmp sgt i32 %10, 0
  br i1 %11, label %.lr.ph, label %.loopexit42

.lr.ph:                                           ; preds = %.preheader
  %12 = and i32 %4, 4
  %.not = icmp eq i32 %12, 0
  br label %13

13:                                               ; preds = %.lr.ph, %51
  %.03343 = phi i32 [ 0, %.lr.ph ], [ %52, %51 ]
  %14 = tail call ptr @OPENSSL_sk_value(ptr noundef nonnull %8, i32 noundef %.03343) #6
  %15 = getelementptr inbounds nuw i8, ptr %14, i64 24
  %16 = load ptr, ptr %15, align 8, !tbaa !40
  %17 = tail call i32 @OBJ_obj2nid(ptr noundef %16) #6
  switch i32 %17, label %51 [
    i32 21, label %18
    i32 26, label %23
  ]

18:                                               ; preds = %13
  %19 = tail call ptr @PKCS12_unpack_p7data(ptr noundef nonnull %14) #6
  br i1 %.not, label %40, label %20

20:                                               ; preds = %18
  %21 = load ptr, ptr @bio_err, align 8, !tbaa !13
  %22 = tail call i32 (ptr, ptr, ...) @BIO_printf(ptr noundef %21, ptr noundef nonnull @.str.165) #6
  br label %40

23:                                               ; preds = %13
  br i1 %.not, label %38, label %24

24:                                               ; preds = %23
  %25 = load ptr, ptr @bio_err, align 8, !tbaa !13
  %26 = tail call i32 (ptr, ptr, ...) @BIO_printf(ptr noundef %25, ptr noundef nonnull @.str.166) #6
  %27 = getelementptr inbounds nuw i8, ptr %14, i64 32
  %28 = load ptr, ptr %27, align 8, !tbaa !33
  %29 = icmp eq ptr %28, null
  br i1 %29, label %30, label %33

30:                                               ; preds = %24
  %31 = load ptr, ptr @bio_err, align 8, !tbaa !13
  %32 = tail call i32 (ptr, ptr, ...) @BIO_printf(ptr noundef %31, ptr noundef nonnull @.str.167) #6
  br label %38

33:                                               ; preds = %24
  %34 = getelementptr inbounds nuw i8, ptr %28, i64 8
  %35 = load ptr, ptr %34, align 8, !tbaa !45
  %36 = getelementptr inbounds nuw i8, ptr %35, i64 8
  %37 = load ptr, ptr %36, align 8, !tbaa !48
  tail call fastcc void @alg_print(ptr noundef %37)
  br label %38

38:                                               ; preds = %30, %33, %23
  %39 = tail call ptr @PKCS12_unpack_p7encdata(ptr noundef nonnull %14, ptr noundef %2, i32 noundef %3) #6
  br label %40

40:                                               ; preds = %18, %20, %38
  %.0 = phi ptr [ %19, %20 ], [ %19, %18 ], [ %39, %38 ]
  %41 = icmp eq ptr %.0, null
  br i1 %41, label %.loopexit42, label %42

42:                                               ; preds = %40
  %43 = tail call i32 @OPENSSL_sk_num(ptr noundef nonnull %.0) #6
  %44 = icmp sgt i32 %43, 0
  br i1 %44, label %.lr.ph.i, label %.loopexit

45:                                               ; preds = %.lr.ph.i
  %46 = add nuw nsw i32 %.012.i, 1
  %47 = tail call i32 @OPENSSL_sk_num(ptr noundef nonnull %.0) #6
  %48 = icmp slt i32 %46, %47
  br i1 %48, label %.lr.ph.i, label %.loopexit, !llvm.loop !51

.lr.ph.i:                                         ; preds = %42, %45
  %.012.i = phi i32 [ %46, %45 ], [ 0, %42 ]
  %49 = tail call ptr @OPENSSL_sk_value(ptr noundef nonnull %.0, i32 noundef %.012.i) #6
  %50 = tail call i32 @dump_certs_pkeys_bag(ptr noundef %0, ptr noundef %49, ptr noundef %2, i32 noundef %3, i32 noundef %4, ptr noundef %5, ptr noundef %6)
  %.not.i = icmp eq i32 %50, 0
  br i1 %.not.i, label %dump_certs_pkeys_bags.exit, label %45

dump_certs_pkeys_bags.exit:                       ; preds = %.lr.ph.i
  tail call void @OPENSSL_sk_pop_free(ptr noundef nonnull %.0, ptr noundef nonnull @PKCS12_SAFEBAG_free) #6
  br label %.loopexit42

.loopexit:                                        ; preds = %45, %42
  tail call void @OPENSSL_sk_pop_free(ptr noundef nonnull %.0, ptr noundef nonnull @PKCS12_SAFEBAG_free) #6
  br label %51

51:                                               ; preds = %.loopexit, %13
  %52 = add nuw nsw i32 %.03343, 1
  %53 = tail call i32 @OPENSSL_sk_num(ptr noundef nonnull %8) #6
  %54 = icmp slt i32 %52, %53
  br i1 %54, label %13, label %.loopexit42, !llvm.loop !52

.loopexit42:                                      ; preds = %51, %40, %.preheader, %dump_certs_pkeys_bags.exit
  %.032 = phi i32 [ 0, %dump_certs_pkeys_bags.exit ], [ 1, %.preheader ], [ 1, %51 ], [ 0, %40 ]
  tail call void @OPENSSL_sk_pop_free(ptr noundef nonnull %8, ptr noundef nonnull @PKCS7_free) #6
  br label %55

55:                                               ; preds = %7, %.loopexit42
  %.031 = phi i32 [ %.032, %.loopexit42 ], [ 0, %7 ]
  ret i32 %.031
}